; Function Attrs: cold inlinehint mustprogress noreturn uwtable
define internal fastcc void @"_ZZN12_GLOBAL__N_158StderrLogSinkDeathTest_SecondaryFatalMessagesInStderr_Test8TestBodyEvENK3$_0clB5cxx11Ev"() unnamed_addr #24 align 2 personality ptr @__gxx_personality_v0 {
  %1 = alloca %"class.absl::log_internal::LogMessageFatal", align 8
  call void @llvm.lifetime.start.p0(i64 16, ptr nonnull %1) #29
  call void @_ZN4absl12log_internal15LogMessageFatalC1EPKci(ptr noundef nonnull align 8 dereferenceable(16) %1, ptr noundef nonnull @.str.4, i32 noundef 93) #33
  %2 = invoke noundef nonnull align 8 dereferenceable(16) ptr @_ZN4absl12log_internal10LogMessagelsILi17EEERS1_RAT__Kc(ptr noundef nonnull align 8 dereferenceable(16) %1, ptr noundef nonnull align 1 dereferenceable(17) @.str.49)
          to label %3 unwind label %4

3:                                                ; preds = %0
  call void @_ZN4absl12log_internal15LogMessageFatalD1Ev(ptr noundef nonnull align 8 dereferenceable(16) %1) #30
  unreachable

4:                                                ; preds = %0
  %5 = landingpad { ptr, i32 }
          cleanup
  call void @_ZN4absl12log_internal15LogMessageFatalD1Ev(ptr noundef nonnull align 8 dereferenceable(16) %1) #30
  unreachable
}